target datalayout = "e-m:e-p270:32:32-p271:32:32-p272:64:64-i64:64-i128:128-f80:128-n8:16:32:64-S128"
target triple = "x86_64-pc-linux-gnu"

%struct.SDL_GUID = type { [16 x i8] }
%struct.GamepadMapping_t = type { %struct.SDL_GUID, ptr, ptr, i32, ptr }

@.str.10 = private unnamed_addr constant [9 x i8] c"%s,%s,%s\00", align 1

; Function Attrs: nounwind uwtable
define hidden ptr @SDL_GetGamepadMappingForID_REAL(i32 noundef %0) #0 {
  %2 = alloca i32, align 4
  %3 = alloca ptr, align 8
  %4 = alloca ptr, align 8
  %5 = alloca [33 x i8], align 16
  %6 = alloca %struct.SDL_GUID, align 1
  store i32 %0, ptr %2, align 4
  call void @llvm.lifetime.start.p0(i64 8, ptr %3) #8
  store ptr null, ptr %3, align 8
  call void @SDL_LockJoysticks_REAL()
  call void @llvm.lifetime.start.p0(i64 8, ptr %4) #8
  %7 = load i32, ptr %2, align 4
  %8 = call ptr @SDL_PrivateGetGamepadMapping(i32 noundef %7, i1 noundef zeroext true)
  store ptr %8, ptr %4, align 8
  %9 = load ptr, ptr %4, align 8
  %10 = icmp ne ptr %9, null
  br i1 %10, label %11, label %32

11:                                               ; preds = %1
  call void @llvm.lifetime.start.p0(i64 33, ptr %5) #8
  call void @llvm.lifetime.start.p0(i64 16, ptr %6) #8
  %12 = load i32, ptr %2, align 4
  %13 = call { i64, i64 } @SDL_GetJoystickGUIDForID_REAL(i32 noundef %12)
  %14 = getelementptr inbounds nuw %struct.SDL_GUID, ptr %6, i32 0, i32 0
  %15 = getelementptr inbounds nuw { i64, i64 }, ptr %14, i32 0, i32 0
  %16 = extractvalue { i64, i64 } %13, 0
  store i64 %16, ptr %15, align 1
  %17 = getelementptr inbounds nuw { i64, i64 }, ptr %14, i32 0, i32 1
  %18 = extractvalue { i64, i64 } %13, 1
  store i64 %18, ptr %17, align 1
  %19 = getelementptr inbounds [33 x i8], ptr %5, i64 0, i64 0
  %20 = getelementptr inbounds nuw { i64, i64 }, ptr %6, i32 0, i32 0
  %21 = load i64, ptr %20, align 1
  %22 = getelementptr inbounds nuw { i64, i64 }, ptr %6, i32 0, i32 1
  %23 = load i64, ptr %22, align 1
  call void @SDL_GUIDToString_REAL(i64 %21, i64 %23, ptr noundef %19, i32 noundef 33)
  %24 = getelementptr inbounds [33 x i8], ptr %5, i64 0, i64 0
  %25 = load ptr, ptr %4, align 8
  %26 = getelementptr inbounds nuw %struct.GamepadMapping_t, ptr %25, i32 0, i32 1
  %27 = load ptr, ptr %26, align 8
  %28 = load ptr, ptr %4, align 8
  %29 = getelementptr inbounds nuw %struct.GamepadMapping_t, ptr %28, i32 0, i32 2
  %30 = load ptr, ptr %29, align 8
  %31 = call i32 (ptr, ptr, ...) @SDL_asprintf_REAL(ptr noundef %3, ptr noundef @.str.10, ptr noundef %24, ptr noundef %27, ptr noundef %30)
  call void @llvm.lifetime.end.p0(i64 16, ptr %6) #8
  call void @llvm.lifetime.end.p0(i64 33, ptr %5) #8
  br label %32

32:                                               ; preds = %11, %1
  call void @llvm.lifetime.end.p0(i64 8, ptr %4) #8
  call void @SDL_UnlockJoysticks_REAL()
  %33 = load ptr, ptr %3, align 8
  call void @llvm.lifetime.end.p0(i64 8, ptr %3) #8
  ret ptr %33
}