; Function Attrs: nounwind uwtable
define hidden ptr @SDL_GetGamepadMappingForID_REAL(i32 noundef %0) local_unnamed_addr #0 {
  %2 = alloca ptr, align 8
  %3 = alloca [33 x i8], align 16
  call void @llvm.lifetime.start.p0(i64 8, ptr nonnull %2) #10
  store ptr null, ptr %2, align 8
  tail call void @SDL_LockJoysticks_REAL() #10
  %4 = tail call fastcc ptr @SDL_PrivateGetGamepadMapping(i32 noundef %0, i1 noundef zeroext true)
  %.not = icmp eq ptr %4, null
  br i1 %.not, label %14, label %5

5:                                                ; preds = %1
  call void @llvm.lifetime.start.p0(i64 33, ptr nonnull %3) #10
  %6 = tail call { i64, i64 } @SDL_GetJoystickGUIDForID_REAL(i32 noundef %0) #10
  %7 = extractvalue { i64, i64 } %6, 0
  %8 = extractvalue { i64, i64 } %6, 1
  call void @SDL_GUIDToString_REAL(i64 %7, i64 %8, ptr noundef nonnull %3, i32 noundef 33) #10
  %9 = getelementptr inbounds nuw i8, ptr %4, i64 16
  %10 = load ptr, ptr %9, align 8
  %11 = getelementptr inbounds nuw i8, ptr %4, i64 24
  %12 = load ptr, ptr %11, align 8
  %13 = call i32 (ptr, ptr, ...) @SDL_asprintf_REAL(ptr noundef nonnull %2, ptr noundef nonnull @.str.10, ptr noundef nonnull %3, ptr noundef %10, ptr noundef %12) #10
  call void @llvm.lifetime.end.p0(i64 33, ptr nonnull %3) #10
  br label %14

14:                                               ; preds = %5, %1
  call void @SDL_UnlockJoysticks_REAL() #10
  %15 = load ptr, ptr %2, align 8
  call void @llvm.lifetime.end.p0(i64 8, ptr nonnull %2) #10
  ret ptr %15
}